
Sirius Black Test.elf:     file format elf32-avr

Sections:
Idx Name          Size      VMA       LMA       File off  Algn
  0 .data         0000006a  00800200  00000718  000007ac  2**0
                  CONTENTS, ALLOC, LOAD, DATA
  1 .text         00000718  00000000  00000000  00000094  2**1
                  CONTENTS, ALLOC, LOAD, READONLY, CODE
  2 .bss          00000002  0080026a  0080026a  00000816  2**0
                  ALLOC
  3 .comment      00000030  00000000  00000000  00000816  2**0
                  CONTENTS, READONLY
  4 .debug_aranges 00000120  00000000  00000000  00000846  2**0
                  CONTENTS, READONLY, DEBUGGING
  5 .debug_info   00000e8f  00000000  00000000  00000966  2**0
                  CONTENTS, READONLY, DEBUGGING
  6 .debug_abbrev 000002f9  00000000  00000000  000017f5  2**0
                  CONTENTS, READONLY, DEBUGGING
  7 .debug_line   000009e0  00000000  00000000  00001aee  2**0
                  CONTENTS, READONLY, DEBUGGING
  8 .debug_frame  00000314  00000000  00000000  000024d0  2**2
                  CONTENTS, READONLY, DEBUGGING
  9 .debug_str    00000365  00000000  00000000  000027e4  2**0
                  CONTENTS, READONLY, DEBUGGING
 10 .debug_loc    00000b74  00000000  00000000  00002b49  2**0
                  CONTENTS, READONLY, DEBUGGING
 11 .debug_ranges 00000100  00000000  00000000  000036bd  2**0
                  CONTENTS, READONLY, DEBUGGING

Disassembly of section .text:

00000000 <__vectors>:
   0:	71 c0       	rjmp	.+226    	; 0xe4 <__ctors_end>
   2:	00 00       	nop
   4:	8e c0       	rjmp	.+284    	; 0x122 <__bad_interrupt>
   6:	00 00       	nop
   8:	8c c0       	rjmp	.+280    	; 0x122 <__bad_interrupt>
   a:	00 00       	nop
   c:	8a c0       	rjmp	.+276    	; 0x122 <__bad_interrupt>
   e:	00 00       	nop
  10:	88 c0       	rjmp	.+272    	; 0x122 <__bad_interrupt>
  12:	00 00       	nop
  14:	86 c0       	rjmp	.+268    	; 0x122 <__bad_interrupt>
  16:	00 00       	nop
  18:	84 c0       	rjmp	.+264    	; 0x122 <__bad_interrupt>
  1a:	00 00       	nop
  1c:	82 c0       	rjmp	.+260    	; 0x122 <__bad_interrupt>
  1e:	00 00       	nop
  20:	80 c0       	rjmp	.+256    	; 0x122 <__bad_interrupt>
  22:	00 00       	nop
  24:	7e c0       	rjmp	.+252    	; 0x122 <__bad_interrupt>
  26:	00 00       	nop
  28:	7c c0       	rjmp	.+248    	; 0x122 <__bad_interrupt>
  2a:	00 00       	nop
  2c:	7a c0       	rjmp	.+244    	; 0x122 <__bad_interrupt>
  2e:	00 00       	nop
  30:	78 c0       	rjmp	.+240    	; 0x122 <__bad_interrupt>
  32:	00 00       	nop
  34:	76 c0       	rjmp	.+236    	; 0x122 <__bad_interrupt>
  36:	00 00       	nop
  38:	74 c0       	rjmp	.+232    	; 0x122 <__bad_interrupt>
  3a:	00 00       	nop
  3c:	72 c0       	rjmp	.+228    	; 0x122 <__bad_interrupt>
  3e:	00 00       	nop
  40:	70 c0       	rjmp	.+224    	; 0x122 <__bad_interrupt>
  42:	00 00       	nop
  44:	6e c0       	rjmp	.+220    	; 0x122 <__bad_interrupt>
  46:	00 00       	nop
  48:	6c c0       	rjmp	.+216    	; 0x122 <__bad_interrupt>
  4a:	00 00       	nop
  4c:	6a c0       	rjmp	.+212    	; 0x122 <__bad_interrupt>
  4e:	00 00       	nop
  50:	68 c0       	rjmp	.+208    	; 0x122 <__bad_interrupt>
  52:	00 00       	nop
  54:	66 c0       	rjmp	.+204    	; 0x122 <__bad_interrupt>
  56:	00 00       	nop
  58:	64 c0       	rjmp	.+200    	; 0x122 <__bad_interrupt>
  5a:	00 00       	nop
  5c:	fd c0       	rjmp	.+506    	; 0x258 <__vector_23>
  5e:	00 00       	nop
  60:	60 c0       	rjmp	.+192    	; 0x122 <__bad_interrupt>
  62:	00 00       	nop
  64:	cc c0       	rjmp	.+408    	; 0x1fe <__vector_25>
  66:	00 00       	nop
  68:	5c c0       	rjmp	.+184    	; 0x122 <__bad_interrupt>
  6a:	00 00       	nop
  6c:	5a c0       	rjmp	.+180    	; 0x122 <__bad_interrupt>
  6e:	00 00       	nop
  70:	58 c0       	rjmp	.+176    	; 0x122 <__bad_interrupt>
  72:	00 00       	nop
  74:	56 c0       	rjmp	.+172    	; 0x122 <__bad_interrupt>
  76:	00 00       	nop
  78:	54 c0       	rjmp	.+168    	; 0x122 <__bad_interrupt>
  7a:	00 00       	nop
  7c:	52 c0       	rjmp	.+164    	; 0x122 <__bad_interrupt>
  7e:	00 00       	nop
  80:	50 c0       	rjmp	.+160    	; 0x122 <__bad_interrupt>
  82:	00 00       	nop
  84:	4e c0       	rjmp	.+156    	; 0x122 <__bad_interrupt>
  86:	00 00       	nop
  88:	4c c0       	rjmp	.+152    	; 0x122 <__bad_interrupt>
  8a:	00 00       	nop
  8c:	4a c0       	rjmp	.+148    	; 0x122 <__bad_interrupt>
  8e:	00 00       	nop
  90:	48 c0       	rjmp	.+144    	; 0x122 <__bad_interrupt>
  92:	00 00       	nop
  94:	46 c0       	rjmp	.+140    	; 0x122 <__bad_interrupt>
  96:	00 00       	nop
  98:	44 c0       	rjmp	.+136    	; 0x122 <__bad_interrupt>
  9a:	00 00       	nop
  9c:	42 c0       	rjmp	.+132    	; 0x122 <__bad_interrupt>
  9e:	00 00       	nop
  a0:	40 c0       	rjmp	.+128    	; 0x122 <__bad_interrupt>
  a2:	00 00       	nop
  a4:	3e c0       	rjmp	.+124    	; 0x122 <__bad_interrupt>
  a6:	00 00       	nop
  a8:	3c c0       	rjmp	.+120    	; 0x122 <__bad_interrupt>
  aa:	00 00       	nop
  ac:	3a c0       	rjmp	.+116    	; 0x122 <__bad_interrupt>
  ae:	00 00       	nop
  b0:	38 c0       	rjmp	.+112    	; 0x122 <__bad_interrupt>
  b2:	00 00       	nop
  b4:	36 c0       	rjmp	.+108    	; 0x122 <__bad_interrupt>
  b6:	00 00       	nop
  b8:	34 c0       	rjmp	.+104    	; 0x122 <__bad_interrupt>
  ba:	00 00       	nop
  bc:	32 c0       	rjmp	.+100    	; 0x122 <__bad_interrupt>
  be:	00 00       	nop
  c0:	30 c0       	rjmp	.+96     	; 0x122 <__bad_interrupt>
  c2:	00 00       	nop
  c4:	2e c0       	rjmp	.+92     	; 0x122 <__bad_interrupt>
  c6:	00 00       	nop
  c8:	2c c0       	rjmp	.+88     	; 0x122 <__bad_interrupt>
  ca:	00 00       	nop
  cc:	80 c0       	rjmp	.+256    	; 0x1ce <__vector_51>
  ce:	00 00       	nop
  d0:	28 c0       	rjmp	.+80     	; 0x122 <__bad_interrupt>
  d2:	00 00       	nop
  d4:	26 c0       	rjmp	.+76     	; 0x122 <__bad_interrupt>
  d6:	00 00       	nop
  d8:	24 c0       	rjmp	.+72     	; 0x122 <__bad_interrupt>
  da:	00 00       	nop
  dc:	22 c0       	rjmp	.+68     	; 0x122 <__bad_interrupt>
  de:	00 00       	nop
  e0:	20 c0       	rjmp	.+64     	; 0x122 <__bad_interrupt>
	...

000000e4 <__ctors_end>:
  e4:	11 24       	eor	r1, r1
  e6:	1f be       	out	0x3f, r1	; 63
  e8:	cf ef       	ldi	r28, 0xFF	; 255
  ea:	d1 e2       	ldi	r29, 0x21	; 33
  ec:	de bf       	out	0x3e, r29	; 62
  ee:	cd bf       	out	0x3d, r28	; 61
  f0:	00 e0       	ldi	r16, 0x00	; 0
  f2:	0c bf       	out	0x3c, r16	; 60

000000f4 <__do_copy_data>:
  f4:	12 e0       	ldi	r17, 0x02	; 2
  f6:	a0 e0       	ldi	r26, 0x00	; 0
  f8:	b2 e0       	ldi	r27, 0x02	; 2
  fa:	e8 e1       	ldi	r30, 0x18	; 24
  fc:	f7 e0       	ldi	r31, 0x07	; 7
  fe:	00 e0       	ldi	r16, 0x00	; 0
 100:	0b bf       	out	0x3b, r16	; 59
 102:	02 c0       	rjmp	.+4      	; 0x108 <__do_copy_data+0x14>
 104:	07 90       	elpm	r0, Z+
 106:	0d 92       	st	X+, r0
 108:	aa 36       	cpi	r26, 0x6A	; 106
 10a:	b1 07       	cpc	r27, r17
 10c:	d9 f7       	brne	.-10     	; 0x104 <__do_copy_data+0x10>

0000010e <__do_clear_bss>:
 10e:	22 e0       	ldi	r18, 0x02	; 2
 110:	aa e6       	ldi	r26, 0x6A	; 106
 112:	b2 e0       	ldi	r27, 0x02	; 2
 114:	01 c0       	rjmp	.+2      	; 0x118 <.do_clear_bss_start>

00000116 <.do_clear_bss_loop>:
 116:	1d 92       	st	X+, r1

00000118 <.do_clear_bss_start>:
 118:	ac 36       	cpi	r26, 0x6C	; 108
 11a:	b2 07       	cpc	r27, r18
 11c:	e1 f7       	brne	.-8      	; 0x116 <.do_clear_bss_loop>
 11e:	02 d0       	rcall	.+4      	; 0x124 <main>
 120:	f9 c2       	rjmp	.+1522   	; 0x714 <_exit>

00000122 <__bad_interrupt>:
 122:	6e cf       	rjmp	.-292    	; 0x0 <__vectors>

00000124 <main>:
#include <avr/interrupt.h>
#include "SiriusBlack_Treiber.h"

int main(void)
{
	init_sirius();
 124:	8c d0       	rcall	.+280    	; 0x23e <init_sirius>
	lcd_init();		
 126:	a3 d2       	rcall	.+1350   	; 0x66e <lcd_init>
	init_ADC();
 128:	3b d1       	rcall	.+630    	; 0x3a0 <init_ADC>
	init_rs232(103); // 103 => 9600 baud
 12a:	87 e6       	ldi	r24, 0x67	; 103
 12c:	90 e0       	ldi	r25, 0x00	; 0
 12e:	df d0       	rcall	.+446    	; 0x2ee <init_rs232>
	init_usb();
 130:	0a d1       	rcall	.+532    	; 0x346 <init_usb>
    wait_5ms(100);
 132:	84 e6       	ldi	r24, 0x64	; 100
 134:	90 e0       	ldi	r25, 0x00	; 0
 136:	a9 d0       	rcall	.+338    	; 0x28a <wait_5ms>
	init_RGB();
 138:	69 d1       	rcall	.+722    	; 0x40c <init_RGB>
	
	rs232_sende_string("Sirius Black RS232 gestartet");
 13a:	80 e0       	ldi	r24, 0x00	; 0
 13c:	92 e0       	ldi	r25, 0x02	; 2
 13e:	ef d0       	rcall	.+478    	; 0x31e <rs232_sende_string>
	USB_sende_string("Sirius Black an USB gestartet");
 140:	8d e1       	ldi	r24, 0x1D	; 29
 142:	92 e0       	ldi	r25, 0x02	; 2
 144:	19 d1       	rcall	.+562    	; 0x378 <USB_sende_string>
	
	while(1)
    {
		PORTA ++;
		wait_5ms(PINK);
 146:	c6 e0       	ldi	r28, 0x06	; 6
 148:	d1 e0       	ldi	r29, 0x01	; 1
	rs232_sende_string("Sirius Black RS232 gestartet");
	USB_sende_string("Sirius Black an USB gestartet");
	
	while(1)
    {
		PORTA ++;
 14a:	82 b1       	in	r24, 0x02	; 2
 14c:	8f 5f       	subi	r24, 0xFF	; 255
 14e:	82 b9       	out	0x02, r24	; 2
		wait_5ms(PINK);
 150:	88 81       	ld	r24, Y
 152:	90 e0       	ldi	r25, 0x00	; 0
 154:	9a d0       	rcall	.+308    	; 0x28a <wait_5ms>
		
		lcd_light(read_ADC(0)/100);
 156:	80 e0       	ldi	r24, 0x00	; 0
 158:	3b d1       	rcall	.+630    	; 0x3d0 <read_ADC>
 15a:	9c 01       	movw	r18, r24
 15c:	36 95       	lsr	r19
 15e:	27 95       	ror	r18
 160:	36 95       	lsr	r19
 162:	27 95       	ror	r18
 164:	ab e7       	ldi	r26, 0x7B	; 123
 166:	b4 e1       	ldi	r27, 0x14	; 20
 168:	c6 d2       	rcall	.+1420   	; 0x6f6 <__umulhisi3>
 16a:	96 95       	lsr	r25
 16c:	87 95       	ror	r24
 16e:	cc d1       	rcall	.+920    	; 0x508 <lcd_light>
		
		if((PINE &0xF0)>0)
 170:	8c b1       	in	r24, 0x0c	; 12
 172:	80 7f       	andi	r24, 0xF0	; 240
 174:	01 f1       	breq	.+64     	; 0x1b6 <main+0x92>
		{
			PWM_RGB(0,0,0);
 176:	40 e0       	ldi	r20, 0x00	; 0
 178:	50 e0       	ldi	r21, 0x00	; 0
 17a:	60 e0       	ldi	r22, 0x00	; 0
 17c:	70 e0       	ldi	r23, 0x00	; 0
 17e:	80 e0       	ldi	r24, 0x00	; 0
 180:	90 e0       	ldi	r25, 0x00	; 0
 182:	51 d1       	rcall	.+674    	; 0x426 <PWM_RGB>
			if((PINE&0x10) >0)RGB_Rot(1023);
 184:	64 9b       	sbis	0x0c, 4	; 12
 186:	03 c0       	rjmp	.+6      	; 0x18e <main+0x6a>
 188:	8f ef       	ldi	r24, 0xFF	; 255
 18a:	93 e0       	ldi	r25, 0x03	; 3
 18c:	63 d1       	rcall	.+710    	; 0x454 <RGB_Rot>
			if((PINE&0x20) >0)RGB_Gruen(1023);
 18e:	65 9b       	sbis	0x0c, 5	; 12
 190:	03 c0       	rjmp	.+6      	; 0x198 <main+0x74>
 192:	8f ef       	ldi	r24, 0xFF	; 255
 194:	93 e0       	ldi	r25, 0x03	; 3
 196:	76 d1       	rcall	.+748    	; 0x484 <RGB_Gruen>
			if((PINE&0x40) >0)RGB_Blau(1023);
 198:	66 9b       	sbis	0x0c, 6	; 12
 19a:	03 c0       	rjmp	.+6      	; 0x1a2 <main+0x7e>
 19c:	8f ef       	ldi	r24, 0xFF	; 255
 19e:	93 e0       	ldi	r25, 0x03	; 3
 1a0:	89 d1       	rcall	.+786    	; 0x4b4 <RGB_Blau>
			if((PINE&0x80) >0)PWM_RGB(1023,1023,1023);
 1a2:	67 9b       	sbis	0x0c, 7	; 12
 1a4:	d2 cf       	rjmp	.-92     	; 0x14a <main+0x26>
 1a6:	4f ef       	ldi	r20, 0xFF	; 255
 1a8:	53 e0       	ldi	r21, 0x03	; 3
 1aa:	6f ef       	ldi	r22, 0xFF	; 255
 1ac:	73 e0       	ldi	r23, 0x03	; 3
 1ae:	8f ef       	ldi	r24, 0xFF	; 255
 1b0:	93 e0       	ldi	r25, 0x03	; 3
 1b2:	39 d1       	rcall	.+626    	; 0x426 <PWM_RGB>
 1b4:	ca cf       	rjmp	.-108    	; 0x14a <main+0x26>
		}
		else PWM_RGB(read_ADC(3),read_ADC(2),read_ADC(1));
 1b6:	81 e0       	ldi	r24, 0x01	; 1
 1b8:	0b d1       	rcall	.+534    	; 0x3d0 <read_ADC>
 1ba:	7c 01       	movw	r14, r24
 1bc:	82 e0       	ldi	r24, 0x02	; 2
 1be:	08 d1       	rcall	.+528    	; 0x3d0 <read_ADC>
 1c0:	8c 01       	movw	r16, r24
 1c2:	83 e0       	ldi	r24, 0x03	; 3
 1c4:	05 d1       	rcall	.+522    	; 0x3d0 <read_ADC>
 1c6:	a7 01       	movw	r20, r14
 1c8:	b8 01       	movw	r22, r16
 1ca:	2d d1       	rcall	.+602    	; 0x426 <PWM_RGB>
 1cc:	be cf       	rjmp	.-132    	; 0x14a <main+0x26>

000001ce <__vector_51>:
    }
}

ISR(USART2_RX_vect)
{
 1ce:	1f 92       	push	r1
 1d0:	0f 92       	push	r0
 1d2:	0f b6       	in	r0, 0x3f	; 63
 1d4:	0f 92       	push	r0
 1d6:	11 24       	eor	r1, r1
 1d8:	0b b6       	in	r0, 0x3b	; 59
 1da:	0f 92       	push	r0
 1dc:	8f 93       	push	r24
 1de:	ef 93       	push	r30
 1e0:	ff 93       	push	r31
	UDR2 = UDR2;
 1e2:	e6 ed       	ldi	r30, 0xD6	; 214
 1e4:	f0 e0       	ldi	r31, 0x00	; 0
 1e6:	80 81       	ld	r24, Z
 1e8:	80 83       	st	Z, r24
}
 1ea:	ff 91       	pop	r31
 1ec:	ef 91       	pop	r30
 1ee:	8f 91       	pop	r24
 1f0:	0f 90       	pop	r0
 1f2:	0b be       	out	0x3b, r0	; 59
 1f4:	0f 90       	pop	r0
 1f6:	0f be       	out	0x3f, r0	; 63
 1f8:	0f 90       	pop	r0
 1fa:	1f 90       	pop	r1
 1fc:	18 95       	reti

000001fe <__vector_25>:

ISR(USART0_RX_vect)
{
 1fe:	1f 92       	push	r1
 200:	0f 92       	push	r0
 202:	0f b6       	in	r0, 0x3f	; 63
 204:	0f 92       	push	r0
 206:	11 24       	eor	r1, r1
 208:	0b b6       	in	r0, 0x3b	; 59
 20a:	0f 92       	push	r0
 20c:	8f 93       	push	r24
 20e:	ef 93       	push	r30
 210:	ff 93       	push	r31
	UDR0 = UDR0;
 212:	e6 ec       	ldi	r30, 0xC6	; 198
 214:	f0 e0       	ldi	r31, 0x00	; 0
 216:	80 81       	ld	r24, Z
 218:	80 83       	st	Z, r24
 21a:	ff 91       	pop	r31
 21c:	ef 91       	pop	r30
 21e:	8f 91       	pop	r24
 220:	0f 90       	pop	r0
 222:	0b be       	out	0x3b, r0	; 59
 224:	0f 90       	pop	r0
 226:	0f be       	out	0x3f, r0	; 63
 228:	0f 90       	pop	r0
 22a:	1f 90       	pop	r1
 22c:	18 95       	reti

0000022e <init_5ms_timer>:
// Timer 0 initialisirung
//--------------------------------------------------------------------------------------------

void init_5ms_timer(void)
{
	TCCR0A = 0b00000011; // Timer mode einstellungen -> Fast PWM mode
 22e:	83 e0       	ldi	r24, 0x03	; 3
 230:	84 bd       	out	0x24, r24	; 36
	TCCR0B = 0b00000101; // 16Mhz / 1024 = 15,635kHz
 232:	85 e0       	ldi	r24, 0x05	; 5
 234:	85 bd       	out	0x25, r24	; 37
	TIMSK0 = 0b00000001; // Timer overflow Interrupt aktivieren
 236:	81 e0       	ldi	r24, 0x01	; 1
 238:	80 93 6e 00 	sts	0x006E, r24
 23c:	08 95       	ret

0000023e <init_sirius>:
// Initialisirung SiriusBlack
//--------------------------------------------------------------------------------------------

void init_sirius(void)
{
	DDRA = 0xFF;	// LED Port als Ausgang
 23e:	8f ef       	ldi	r24, 0xFF	; 255
 240:	81 b9       	out	0x01, r24	; 1
	DDRK = 0x00;	// Schalter Port als Eingang
 242:	10 92 07 01 	sts	0x0107, r1
	DDRE = 0x00;	// Taster als Eingang
 246:	1d b8       	out	0x0d, r1	; 13
	DDRG = 0x27;	// LCD port als Ausgang
 248:	87 e2       	ldi	r24, 0x27	; 39
 24a:	83 bb       	out	0x13, r24	; 19
	DDRH = 0x78;	// RGB, CTS als Ausgang
 24c:	88 e7       	ldi	r24, 0x78	; 120
 24e:	80 93 01 01 	sts	0x0101, r24
	
	init_5ms_timer();
 252:	ed df       	rcall	.-38     	; 0x22e <init_5ms_timer>
	
	sei();			// Global interrups aktivieren
 254:	78 94       	sei
 256:	08 95       	ret

00000258 <__vector_23>:
//--------------------------------------------------------------------------------------------
// Timer 0 Overflow Interrupt ->  Wird alle 5ms aufgerufen
//--------------------------------------------------------------------------------------------

ISR(TIMER0_OVF_vect)
{
 258:	1f 92       	push	r1
 25a:	0f 92       	push	r0
 25c:	0f b6       	in	r0, 0x3f	; 63
 25e:	0f 92       	push	r0
 260:	11 24       	eor	r1, r1
 262:	8f 93       	push	r24
 264:	9f 93       	push	r25
	TCNT0 = 178; // 178 ins timer/counter register laden -> alle 5ms ein interrupt
 266:	82 eb       	ldi	r24, 0xB2	; 178
 268:	86 bd       	out	0x26, r24	; 38
	
	takt_5ms_zaehler --; 
 26a:	80 91 6a 02 	lds	r24, 0x026A
 26e:	90 91 6b 02 	lds	r25, 0x026B
 272:	01 97       	sbiw	r24, 0x01	; 1
 274:	90 93 6b 02 	sts	0x026B, r25
 278:	80 93 6a 02 	sts	0x026A, r24
}
 27c:	9f 91       	pop	r25
 27e:	8f 91       	pop	r24
 280:	0f 90       	pop	r0
 282:	0f be       	out	0x3f, r0	; 63
 284:	0f 90       	pop	r0
 286:	1f 90       	pop	r1
 288:	18 95       	reti

0000028a <wait_5ms>:
// 5ms Wartefunktion
//--------------------------------------------------------------------------------------------

void wait_5ms(uint16_t faktor)
{
	takt_5ms_zaehler = faktor;
 28a:	90 93 6b 02 	sts	0x026B, r25
 28e:	80 93 6a 02 	sts	0x026A, r24
	if(faktor != 0) while(takt_5ms_zaehler);
 292:	89 2b       	or	r24, r25
 294:	31 f0       	breq	.+12     	; 0x2a2 <wait_5ms+0x18>
 296:	80 91 6a 02 	lds	r24, 0x026A
 29a:	90 91 6b 02 	lds	r25, 0x026B
 29e:	89 2b       	or	r24, r25
 2a0:	d1 f7       	brne	.-12     	; 0x296 <wait_5ms+0xc>
 2a2:	08 95       	ret

000002a4 <wait_1us>:

//--------------------------------------------------------------------------------------------
// 1us Wartefunktion
//--------------------------------------------------------------------------------------------
void wait_1us(uint16_t volatile faktor)
{
 2a4:	cf 93       	push	r28
 2a6:	df 93       	push	r29
 2a8:	1f 92       	push	r1
 2aa:	1f 92       	push	r1
 2ac:	cd b7       	in	r28, 0x3d	; 61
 2ae:	de b7       	in	r29, 0x3e	; 62
 2b0:	9a 83       	std	Y+2, r25	; 0x02
 2b2:	89 83       	std	Y+1, r24	; 0x01
	while (faktor)
 2b4:	89 81       	ldd	r24, Y+1	; 0x01
 2b6:	9a 81       	ldd	r25, Y+2	; 0x02
 2b8:	89 2b       	or	r24, r25
 2ba:	a1 f0       	breq	.+40     	; 0x2e4 <wait_1us+0x40>
	...
		asm  ("nop");
		asm  ("nop");
		asm  ("nop");
		asm  ("nop");
		asm  ("nop");
		asm  ("nop");
 2d0:	00 00       	nop
		faktor --;
 2d2:	89 81       	ldd	r24, Y+1	; 0x01
 2d4:	9a 81       	ldd	r25, Y+2	; 0x02
 2d6:	01 97       	sbiw	r24, 0x01	; 1
 2d8:	9a 83       	std	Y+2, r25	; 0x02
 2da:	89 83       	std	Y+1, r24	; 0x01
//--------------------------------------------------------------------------------------------
// 1us Wartefunktion
//--------------------------------------------------------------------------------------------
void wait_1us(uint16_t volatile faktor)
{
	while (faktor)
 2dc:	89 81       	ldd	r24, Y+1	; 0x01
 2de:	9a 81       	ldd	r25, Y+2	; 0x02
 2e0:	89 2b       	or	r24, r25
 2e2:	61 f7       	brne	.-40     	; 0x2bc <wait_1us+0x18>
		asm  ("nop");
		asm  ("nop");
		asm  ("nop");
		faktor --;
	}
}
 2e4:	0f 90       	pop	r0
 2e6:	0f 90       	pop	r0
 2e8:	df 91       	pop	r29
 2ea:	cf 91       	pop	r28
 2ec:	08 95       	ret

000002ee <init_rs232>:
// RS232 Initialisiren
//--------------------------------------------------------------------------------------------
void init_rs232 (uint16_t baudratenregister)
{
	//UCSR2B = 0b00011000; // RX und TX enable
	UCSR2B = 0b10011000; // RX und TX enable
 2ee:	28 e9       	ldi	r18, 0x98	; 152
 2f0:	20 93 d1 00 	sts	0x00D1, r18
	UCSR2C = 0b00000110; // Asynkrone USART, 8 Datenbits
 2f4:	26 e0       	ldi	r18, 0x06	; 6
 2f6:	20 93 d2 00 	sts	0x00D2, r18

	UBRR2H = (baudratenregister >>8);
 2fa:	90 93 d5 00 	sts	0x00D5, r25
	UBRR2L = (baudratenregister & 0x00FF);
 2fe:	80 93 d4 00 	sts	0x00D4, r24
 302:	08 95       	ret

00000304 <rs232_sende_zeichen>:
//--------------------------------------------------------------------------------------------
// Ein einzelnes zeichen über RS232 Senden
//--------------------------------------------------------------------------------------------
void rs232_sende_zeichen(char zeichen)
{
	UDR2 = zeichen;
 304:	80 93 d6 00 	sts	0x00D6, r24
	
	while( (UCSR2A & 0b01000000) == 0); // Warten bis Byte gesendet
 308:	e0 ed       	ldi	r30, 0xD0	; 208
 30a:	f0 e0       	ldi	r31, 0x00	; 0
 30c:	80 81       	ld	r24, Z
 30e:	86 ff       	sbrs	r24, 6
 310:	fd cf       	rjmp	.-6      	; 0x30c <rs232_sende_zeichen+0x8>
	UCSR2A |= 0b01000000;	//Byte gesendet Flagge löschen
 312:	e0 ed       	ldi	r30, 0xD0	; 208
 314:	f0 e0       	ldi	r31, 0x00	; 0
 316:	80 81       	ld	r24, Z
 318:	80 64       	ori	r24, 0x40	; 64
 31a:	80 83       	st	Z, r24
 31c:	08 95       	ret

0000031e <rs232_sende_string>:

//--------------------------------------------------------------------------------------------
// Einen Nullterminierten string über RS232 senden
//--------------------------------------------------------------------------------------------
void rs232_sende_string(char *Text)
{	
 31e:	1f 93       	push	r17
 320:	cf 93       	push	r28
 322:	df 93       	push	r29
 324:	ec 01       	movw	r28, r24
	uint8_t i = 0;
	
	while(Text[i])
 326:	88 81       	ld	r24, Y
 328:	88 23       	and	r24, r24
 32a:	49 f0       	breq	.+18     	; 0x33e <rs232_sende_string+0x20>
//--------------------------------------------------------------------------------------------
// Einen Nullterminierten string über RS232 senden
//--------------------------------------------------------------------------------------------
void rs232_sende_string(char *Text)
{	
	uint8_t i = 0;
 32c:	10 e0       	ldi	r17, 0x00	; 0
	
	while(Text[i])
	{
		rs232_sende_zeichen(Text[i]);
 32e:	ea df       	rcall	.-44     	; 0x304 <rs232_sende_zeichen>
		i++;	
 330:	1f 5f       	subi	r17, 0xFF	; 255
//--------------------------------------------------------------------------------------------
void rs232_sende_string(char *Text)
{	
	uint8_t i = 0;
	
	while(Text[i])
 332:	fe 01       	movw	r30, r28
 334:	e1 0f       	add	r30, r17
 336:	f1 1d       	adc	r31, r1
 338:	80 81       	ld	r24, Z
 33a:	81 11       	cpse	r24, r1
 33c:	f8 cf       	rjmp	.-16     	; 0x32e <rs232_sende_string+0x10>
	{
		rs232_sende_zeichen(Text[i]);
		i++;	
	}	
}
 33e:	df 91       	pop	r29
 340:	cf 91       	pop	r28
 342:	1f 91       	pop	r17
 344:	08 95       	ret

00000346 <init_usb>:
// USB Initialisiren
//--------------------------------------------------------------------------------------------
void init_usb(void)
{
	//UCSR0B = 0b00011000; // RX und TX enable
	UCSR0B = 0b10011000; // RX und TX enable
 346:	88 e9       	ldi	r24, 0x98	; 152
 348:	80 93 c1 00 	sts	0x00C1, r24
	UCSR0C = 0b00000110; // Asynkrone USART, 8 Datenbits
 34c:	86 e0       	ldi	r24, 0x06	; 6
 34e:	80 93 c2 00 	sts	0x00C2, r24

	// 9600 Baud
	UBRR0H = 0;
 352:	10 92 c5 00 	sts	0x00C5, r1
	UBRR0L = 103; 
 356:	87 e6       	ldi	r24, 0x67	; 103
 358:	80 93 c4 00 	sts	0x00C4, r24
 35c:	08 95       	ret

0000035e <USB_sende_zeichen>:
//--------------------------------------------------------------------------------------------
// Ein einzelnes zeichen über USB Senden
//--------------------------------------------------------------------------------------------
void USB_sende_zeichen(char zeichen)
{
	UDR0 = zeichen;
 35e:	80 93 c6 00 	sts	0x00C6, r24
	
	while( (UCSR0A & 0b01000000) == 0); // Warten bis Byte gesendet
 362:	e0 ec       	ldi	r30, 0xC0	; 192
 364:	f0 e0       	ldi	r31, 0x00	; 0
 366:	80 81       	ld	r24, Z
 368:	86 ff       	sbrs	r24, 6
 36a:	fd cf       	rjmp	.-6      	; 0x366 <USB_sende_zeichen+0x8>
	UCSR0A |= 0b01000000;	//Byte gesendet Flagge löschen
 36c:	e0 ec       	ldi	r30, 0xC0	; 192
 36e:	f0 e0       	ldi	r31, 0x00	; 0
 370:	80 81       	ld	r24, Z
 372:	80 64       	ori	r24, 0x40	; 64
 374:	80 83       	st	Z, r24
 376:	08 95       	ret

00000378 <USB_sende_string>:

//--------------------------------------------------------------------------------------------
// Einen Nullterminierten string über USB senden
//--------------------------------------------------------------------------------------------
void USB_sende_string(char *Text)
{
 378:	1f 93       	push	r17
 37a:	cf 93       	push	r28
 37c:	df 93       	push	r29
 37e:	ec 01       	movw	r28, r24
	uint8_t i = 0;
	
	while(Text[i])
 380:	88 81       	ld	r24, Y
 382:	88 23       	and	r24, r24
 384:	49 f0       	breq	.+18     	; 0x398 <USB_sende_string+0x20>
//--------------------------------------------------------------------------------------------
// Einen Nullterminierten string über USB senden
//--------------------------------------------------------------------------------------------
void USB_sende_string(char *Text)
{
	uint8_t i = 0;
 386:	10 e0       	ldi	r17, 0x00	; 0
	
	while(Text[i])
	{
		USB_sende_zeichen(Text[i]);
 388:	ea df       	rcall	.-44     	; 0x35e <USB_sende_zeichen>
		i++;
 38a:	1f 5f       	subi	r17, 0xFF	; 255
//--------------------------------------------------------------------------------------------
void USB_sende_string(char *Text)
{
	uint8_t i = 0;
	
	while(Text[i])
 38c:	fe 01       	movw	r30, r28
 38e:	e1 0f       	add	r30, r17
 390:	f1 1d       	adc	r31, r1
 392:	80 81       	ld	r24, Z
 394:	81 11       	cpse	r24, r1
 396:	f8 cf       	rjmp	.-16     	; 0x388 <USB_sende_string+0x10>
	{
		USB_sende_zeichen(Text[i]);
		i++;
	}
}
 398:	df 91       	pop	r29
 39a:	cf 91       	pop	r28
 39c:	1f 91       	pop	r17
 39e:	08 95       	ret

000003a0 <init_ADC>:

//****************************************************************** A/D_Wandler-Treiber ******************************************************************//

void init_ADC(void)
{
	ADMUX  = 0x40;	//AVCC Als referenz
 3a0:	80 e4       	ldi	r24, 0x40	; 64
 3a2:	80 93 7c 00 	sts	0x007C, r24
	DIDR0  = 0x0F;	// Digitale Register an ADC pins der Potentiometer deaktivieren
 3a6:	8f e0       	ldi	r24, 0x0F	; 15
 3a8:	80 93 7e 00 	sts	0x007E, r24
	ADCSRA = 0b10100111; // ADC einschalten, ADC clok = 16MHz / 128
 3ac:	ea e7       	ldi	r30, 0x7A	; 122
 3ae:	f0 e0       	ldi	r31, 0x00	; 0
 3b0:	87 ea       	ldi	r24, 0xA7	; 167
 3b2:	80 83       	st	Z, r24
	ADCSRB = 0x00;	// Free runing mode
 3b4:	10 92 7b 00 	sts	0x007B, r1
	
	ADCSRA |=  0b01000000;		// Dummy messung Starten
 3b8:	80 81       	ld	r24, Z
 3ba:	80 64       	ori	r24, 0x40	; 64
 3bc:	80 83       	st	Z, r24
	while((ADCSRA&0x10) == 0);	// Warten bis Messung abgeschllossen
 3be:	80 81       	ld	r24, Z
 3c0:	84 ff       	sbrs	r24, 4
 3c2:	fd cf       	rjmp	.-6      	; 0x3be <init_ADC+0x1e>
	
	ADCSRA &= 0xEF;				// Interruptflage löschen
 3c4:	ea e7       	ldi	r30, 0x7A	; 122
 3c6:	f0 e0       	ldi	r31, 0x00	; 0
 3c8:	80 81       	ld	r24, Z
 3ca:	8f 7e       	andi	r24, 0xEF	; 239
 3cc:	80 83       	st	Z, r24
 3ce:	08 95       	ret

000003d0 <read_ADC>:
	uint16_t messwert = 0;
	
	//if(kanal > 3) kanal = 3;
	
	// Kanal definieren
	ADMUX  = 0x40;	//AVCC Als referenz
 3d0:	ec e7       	ldi	r30, 0x7C	; 124
 3d2:	f0 e0       	ldi	r31, 0x00	; 0
 3d4:	90 e4       	ldi	r25, 0x40	; 64
 3d6:	90 83       	st	Z, r25
	ADMUX |= kanal;
 3d8:	90 81       	ld	r25, Z
 3da:	89 2b       	or	r24, r25
 3dc:	80 83       	st	Z, r24
	
	
	ADCSRA |=  0b01000000;		// ADC Starten
 3de:	ea e7       	ldi	r30, 0x7A	; 122
 3e0:	f0 e0       	ldi	r31, 0x00	; 0
 3e2:	80 81       	ld	r24, Z
 3e4:	80 64       	ori	r24, 0x40	; 64
 3e6:	80 83       	st	Z, r24
	while((ADCSRA&0x10) == 0);	// Warten bis Messung abgeschllossen
 3e8:	80 81       	ld	r24, Z
 3ea:	84 ff       	sbrs	r24, 4
 3ec:	fd cf       	rjmp	.-6      	; 0x3e8 <read_ADC+0x18>
	
	wait_5ms(1);
 3ee:	81 e0       	ldi	r24, 0x01	; 1
 3f0:	90 e0       	ldi	r25, 0x00	; 0
 3f2:	4b df       	rcall	.-362    	; 0x28a <wait_5ms>
	
	messwert = ADCL;
 3f4:	80 91 78 00 	lds	r24, 0x0078
	messwert |= ADCH <<8;
 3f8:	20 91 79 00 	lds	r18, 0x0079
	
	
	ADCSRA &= 0xEF;				// Interruptflage löschen	
 3fc:	ea e7       	ldi	r30, 0x7A	; 122
 3fe:	f0 e0       	ldi	r31, 0x00	; 0
 400:	90 81       	ld	r25, Z
 402:	9f 7e       	andi	r25, 0xEF	; 239
 404:	90 83       	st	Z, r25
	while((ADCSRA&0x10) == 0);	// Warten bis Messung abgeschllossen
	
	wait_5ms(1);
	
	messwert = ADCL;
	messwert |= ADCH <<8;
 406:	90 e0       	ldi	r25, 0x00	; 0
	
	
	ADCSRA &= 0xEF;				// Interruptflage löschen	
	
	return messwert;
}
 408:	92 2b       	or	r25, r18
 40a:	08 95       	ret

0000040c <init_RGB>:
//--------------------------------------------------------------------------------------------
void init_RGB(void)
{
	uint16_t aufloesung = 1023; // 10bit pwm aufösung
	
	TCCR4A = 0b11111110; // Fast PWM mode
 40c:	8e ef       	ldi	r24, 0xFE	; 254
 40e:	80 93 a0 00 	sts	0x00A0, r24
	TCCR4B = 0b00011011; // Ausgänge als PWM Ausgang , Clock / 64
 412:	8b e1       	ldi	r24, 0x1B	; 27
 414:	80 93 a1 00 	sts	0x00A1, r24
	
	ICR4H = (aufloesung >>8);
 418:	83 e0       	ldi	r24, 0x03	; 3
 41a:	80 93 a7 00 	sts	0x00A7, r24
	ICR4L = (aufloesung & 0x00FF);
 41e:	8f ef       	ldi	r24, 0xFF	; 255
 420:	80 93 a6 00 	sts	0x00A6, r24
 424:	08 95       	ret

00000426 <PWM_RGB>:
//--------------------------------------------------------------------------------------------
// Übergabe von werten an die PWM Register
//--------------------------------------------------------------------------------------------
void PWM_RGB(uint16_t Rot,uint16_t Gruen,uint16_t Blau)
{
	Rot		= 1023 - Rot;
 426:	2f ef       	ldi	r18, 0xFF	; 255
 428:	33 e0       	ldi	r19, 0x03	; 3
 42a:	f9 01       	movw	r30, r18
 42c:	e8 1b       	sub	r30, r24
 42e:	f9 0b       	sbc	r31, r25
	Gruen	= 1023 - Gruen;
 430:	c9 01       	movw	r24, r18
 432:	86 1b       	sub	r24, r22
 434:	97 0b       	sbc	r25, r23
	Blau	= 1023 - Blau;
 436:	24 1b       	sub	r18, r20
 438:	35 0b       	sbc	r19, r21
	
	OCR4AH = (Rot >>8);
 43a:	f0 93 a9 00 	sts	0x00A9, r31
	OCR4AL = (Rot & 0x00FF);
 43e:	e0 93 a8 00 	sts	0x00A8, r30
	
	OCR4BH = (Gruen >>8);
 442:	90 93 ab 00 	sts	0x00AB, r25
	OCR4BL = (Gruen & 0x00FF);
 446:	80 93 aa 00 	sts	0x00AA, r24
	
	OCR4CH = (Blau >>8);
 44a:	30 93 ad 00 	sts	0x00AD, r19
	OCR4CL = (Blau & 0x00FF);
 44e:	20 93 ac 00 	sts	0x00AC, r18
 452:	08 95       	ret

00000454 <RGB_Rot>:
}

void RGB_Rot(uint16_t Rot)
{
	// Wenn PWM nicht inizialisirt ist Pin mit LED High oder Low setztzen
	if(Rot)	PORTH |= 0x08;
 454:	00 97       	sbiw	r24, 0x00	; 0
 456:	31 f0       	breq	.+12     	; 0x464 <RGB_Rot+0x10>
 458:	e2 e0       	ldi	r30, 0x02	; 2
 45a:	f1 e0       	ldi	r31, 0x01	; 1
 45c:	20 81       	ld	r18, Z
 45e:	28 60       	ori	r18, 0x08	; 8
 460:	20 83       	st	Z, r18
 462:	05 c0       	rjmp	.+10     	; 0x46e <RGB_Rot+0x1a>
	else PORTH &= 0xF7;
 464:	e2 e0       	ldi	r30, 0x02	; 2
 466:	f1 e0       	ldi	r31, 0x01	; 1
 468:	20 81       	ld	r18, Z
 46a:	27 7f       	andi	r18, 0xF7	; 247
 46c:	20 83       	st	Z, r18
	
	// Wenn PWM initialisirt ist wert an PWM register übergeben
	Rot		= 1023 - Rot;
 46e:	2f ef       	ldi	r18, 0xFF	; 255
 470:	33 e0       	ldi	r19, 0x03	; 3
 472:	a9 01       	movw	r20, r18
 474:	48 1b       	sub	r20, r24
 476:	59 0b       	sbc	r21, r25
 478:	ca 01       	movw	r24, r20
	OCR4AH = (Rot >>8);
 47a:	90 93 a9 00 	sts	0x00A9, r25
	OCR4AL = (Rot & 0x00FF);
 47e:	40 93 a8 00 	sts	0x00A8, r20
 482:	08 95       	ret

00000484 <RGB_Gruen>:
}

void RGB_Gruen(uint16_t Gruen)
{
	// Wenn PWM nicht inizialisirt ist Pin mit LED High oder Low setztzen
	if(Gruen)	PORTH |= 0x10;
 484:	00 97       	sbiw	r24, 0x00	; 0
 486:	31 f0       	breq	.+12     	; 0x494 <RGB_Gruen+0x10>
 488:	e2 e0       	ldi	r30, 0x02	; 2
 48a:	f1 e0       	ldi	r31, 0x01	; 1
 48c:	20 81       	ld	r18, Z
 48e:	20 61       	ori	r18, 0x10	; 16
 490:	20 83       	st	Z, r18
 492:	05 c0       	rjmp	.+10     	; 0x49e <RGB_Gruen+0x1a>
	else PORTH &= 0xEF;
 494:	e2 e0       	ldi	r30, 0x02	; 2
 496:	f1 e0       	ldi	r31, 0x01	; 1
 498:	20 81       	ld	r18, Z
 49a:	2f 7e       	andi	r18, 0xEF	; 239
 49c:	20 83       	st	Z, r18
	
	// Wenn PWM initialisirt ist wert an PWM register übergeben
	Gruen	= 1023 - Gruen;
 49e:	2f ef       	ldi	r18, 0xFF	; 255
 4a0:	33 e0       	ldi	r19, 0x03	; 3
 4a2:	a9 01       	movw	r20, r18
 4a4:	48 1b       	sub	r20, r24
 4a6:	59 0b       	sbc	r21, r25
 4a8:	ca 01       	movw	r24, r20
	OCR4BH = (Gruen >>8);
 4aa:	90 93 ab 00 	sts	0x00AB, r25
	OCR4BL = (Gruen & 0x00FF);
 4ae:	40 93 aa 00 	sts	0x00AA, r20
 4b2:	08 95       	ret

000004b4 <RGB_Blau>:
}

void RGB_Blau(uint16_t Blau)
{
	// Wenn PWM nicht inizialisirt ist Pin mit LED High oder Low setztzen
	if(Blau)	PORTH |= 0x20;
 4b4:	00 97       	sbiw	r24, 0x00	; 0
 4b6:	31 f0       	breq	.+12     	; 0x4c4 <RGB_Blau+0x10>
 4b8:	e2 e0       	ldi	r30, 0x02	; 2
 4ba:	f1 e0       	ldi	r31, 0x01	; 1
 4bc:	20 81       	ld	r18, Z
 4be:	20 62       	ori	r18, 0x20	; 32
 4c0:	20 83       	st	Z, r18
 4c2:	05 c0       	rjmp	.+10     	; 0x4ce <RGB_Blau+0x1a>
	else PORTH &= 0xDF;
 4c4:	e2 e0       	ldi	r30, 0x02	; 2
 4c6:	f1 e0       	ldi	r31, 0x01	; 1
 4c8:	20 81       	ld	r18, Z
 4ca:	2f 7d       	andi	r18, 0xDF	; 223
 4cc:	20 83       	st	Z, r18
	
	// Wenn PWM initialisirt ist wert an PWM register übergeben
	Blau	= 1023 - Blau;
 4ce:	2f ef       	ldi	r18, 0xFF	; 255
 4d0:	33 e0       	ldi	r19, 0x03	; 3
 4d2:	a9 01       	movw	r20, r18
 4d4:	48 1b       	sub	r20, r24
 4d6:	59 0b       	sbc	r21, r25
 4d8:	ca 01       	movw	r24, r20
	OCR4CH = (Blau >>8);
 4da:	90 93 ad 00 	sts	0x00AD, r25
	OCR4CL = (Blau & 0x00FF);
 4de:	40 93 ac 00 	sts	0x00AC, r20
 4e2:	08 95       	ret

000004e4 <lcd_sid>:
//--------------------------------------------------------------------------------------------
// Ansteuerung von einzelen Bits fur LCD
//--------------------------------------------------------------------------------------------
void lcd_sid(uint8_t status)		// LCD Datenleitung
{
	if(status)	PORTG |= 0x01;
 4e4:	88 23       	and	r24, r24
 4e6:	11 f0       	breq	.+4      	; 0x4ec <lcd_sid+0x8>
 4e8:	a0 9a       	sbi	0x14, 0	; 20
 4ea:	08 95       	ret
	else PORTG &= 0xFE; 
 4ec:	a0 98       	cbi	0x14, 0	; 20
 4ee:	08 95       	ret

000004f0 <lcd_sclk>:
}

void lcd_sclk(uint8_t status)		// LCD Taktleitung
{
	if(status)	PORTG |= 0x02;
 4f0:	88 23       	and	r24, r24
 4f2:	11 f0       	breq	.+4      	; 0x4f8 <lcd_sclk+0x8>
 4f4:	a1 9a       	sbi	0x14, 1	; 20
 4f6:	08 95       	ret
	else PORTG &= 0xFD;
 4f8:	a1 98       	cbi	0x14, 1	; 20
 4fa:	08 95       	ret

000004fc <lcd_on_off>:
}

void lcd_on_off(uint8_t status)		//LCD ein/Aus
{
	if(status)	PORTG |= 0x04;
 4fc:	88 23       	and	r24, r24
 4fe:	11 f0       	breq	.+4      	; 0x504 <lcd_on_off+0x8>
 500:	a2 9a       	sbi	0x14, 2	; 20
 502:	08 95       	ret
	else PORTG &= 0xFB;
 504:	a2 98       	cbi	0x14, 2	; 20
 506:	08 95       	ret

00000508 <lcd_light>:
//--------------------------------------------------------------------------------------------
// LCD Hintergundbeleuchtung mit PWM dimmen (0 bis 100%) Timer 0 muss initialisiert sein! 
//--------------------------------------------------------------------------------------------
void lcd_light(uint8_t hellighkeit) // Werte von 0 bis 10 möglich -> 0 = Aus , 1= 10%, 10 = 100%
{
	if(hellighkeit == 0)
 508:	81 11       	cpse	r24, r1
 50a:	03 c0       	rjmp	.+6      	; 0x512 <lcd_light+0xa>
	{
		TCCR0A = 0b00000011; //Wenn heligkeit 0 -> Hintergrundbeleuchtung ausschalten
 50c:	83 e0       	ldi	r24, 0x03	; 3
 50e:	84 bd       	out	0x24, r24	; 36
 510:	08 95       	ret
	}
	else
	{
		TCCR0A = 0b00100011;
 512:	93 e2       	ldi	r25, 0x23	; 35
 514:	94 bd       	out	0x24, r25	; 36
 516:	8b 30       	cpi	r24, 0x0B	; 11
 518:	08 f0       	brcs	.+2      	; 0x51c <lcd_light+0x14>
 51a:	8a e0       	ldi	r24, 0x0A	; 10
		if(hellighkeit >10)hellighkeit = 10;
		OCR0B = (hellighkeit*8) + 178;
 51c:	88 0f       	add	r24, r24
 51e:	88 0f       	add	r24, r24
 520:	88 0f       	add	r24, r24
 522:	8e 54       	subi	r24, 0x4E	; 78
 524:	88 bd       	out	0x28, r24	; 40
 526:	08 95       	ret

00000528 <write_lcd_f>:

//--------------------------------------------------------------------------------------------
// Schreibt ein Kommando oder ein Datenbyte (Zeichen) zum LCD SPI (Serial Protokoll Interface)
//--------------------------------------------------------------------------------------------
void write_lcd_f(uint16_t rs, uint16_t value)
{ uint16_t i;
 528:	ef 92       	push	r14
 52a:	ff 92       	push	r15
 52c:	0f 93       	push	r16
 52e:	1f 93       	push	r17
 530:	cf 93       	push	r28
 532:	df 93       	push	r29
 534:	7c 01       	movw	r14, r24
 536:	eb 01       	movw	r28, r22
	// Manche Befehle müssen doppelt ausgeführt werden, damit die
	// minimale Pulslänge von 400ns eingehalten wird. (bei 20MHz)

	// Synchronisierung: 5x "1" senden
	lcd_sid(1);				// Daten-Bit = 1
 538:	81 e0       	ldi	r24, 0x01	; 1
 53a:	d4 df       	rcall	.-88     	; 0x4e4 <lcd_sid>
 53c:	05 e0       	ldi	r16, 0x05	; 5
 53e:	10 e0       	ldi	r17, 0x00	; 0
	for(i=0;i<5; i++)
	{	lcd_sclk(0);			// Synch-Bits senden
 540:	80 e0       	ldi	r24, 0x00	; 0
 542:	d6 df       	rcall	.-84     	; 0x4f0 <lcd_sclk>
		lcd_sclk(1);
 544:	81 e0       	ldi	r24, 0x01	; 1
 546:	d4 df       	rcall	.-88     	; 0x4f0 <lcd_sclk>
 548:	01 50       	subi	r16, 0x01	; 1
 54a:	11 09       	sbc	r17, r1
	// Manche Befehle müssen doppelt ausgeführt werden, damit die
	// minimale Pulslänge von 400ns eingehalten wird. (bei 20MHz)

	// Synchronisierung: 5x "1" senden
	lcd_sid(1);				// Daten-Bit = 1
	for(i=0;i<5; i++)
 54c:	01 15       	cp	r16, r1
 54e:	11 05       	cpc	r17, r1
 550:	b9 f7       	brne	.-18     	; 0x540 <write_lcd_f+0x18>
	{	lcd_sclk(0);			// Synch-Bits senden
		lcd_sclk(1);
	}
	// R/W: 1=Read, 0=Write
	lcd_sid(0);				// R/W = 0
 552:	80 e0       	ldi	r24, 0x00	; 0
 554:	c7 df       	rcall	.-114    	; 0x4e4 <lcd_sid>
	lcd_sclk(0);				// R/W-Bit senden
 556:	80 e0       	ldi	r24, 0x00	; 0
 558:	cb df       	rcall	.-106    	; 0x4f0 <lcd_sclk>
	lcd_sclk(1);
 55a:	81 e0       	ldi	r24, 0x01	; 1
 55c:	c9 df       	rcall	.-110    	; 0x4f0 <lcd_sclk>

	// RS Register Selection: 0=Command, 1=Data
	if (rs == 'C') lcd_sid(0);
 55e:	83 e4       	ldi	r24, 0x43	; 67
 560:	e8 16       	cp	r14, r24
 562:	f1 04       	cpc	r15, r1
 564:	19 f4       	brne	.+6      	; 0x56c <write_lcd_f+0x44>
 566:	80 e0       	ldi	r24, 0x00	; 0
 568:	bd df       	rcall	.-134    	; 0x4e4 <lcd_sid>
 56a:	02 c0       	rjmp	.+4      	; 0x570 <write_lcd_f+0x48>
	else lcd_sid(1);
 56c:	81 e0       	ldi	r24, 0x01	; 1
 56e:	ba df       	rcall	.-140    	; 0x4e4 <lcd_sid>

	lcd_sclk(0);				// RS-Bit senden
 570:	80 e0       	ldi	r24, 0x00	; 0
 572:	be df       	rcall	.-132    	; 0x4f0 <lcd_sclk>
	lcd_sclk(1);
 574:	81 e0       	ldi	r24, 0x01	; 1
 576:	bc df       	rcall	.-136    	; 0x4f0 <lcd_sclk>

	// End-Marke 0
	lcd_sid(0);
 578:	80 e0       	ldi	r24, 0x00	; 0
 57a:	b4 df       	rcall	.-152    	; 0x4e4 <lcd_sid>
	
	lcd_sclk(0);				// END-Bit senden
 57c:	80 e0       	ldi	r24, 0x00	; 0
 57e:	b8 df       	rcall	.-144    	; 0x4f0 <lcd_sclk>
	lcd_sclk(1);
 580:	81 e0       	ldi	r24, 0x01	; 1
 582:	b6 df       	rcall	.-148    	; 0x4f0 <lcd_sclk>
 584:	04 e0       	ldi	r16, 0x04	; 4
 586:	10 e0       	ldi	r17, 0x00	; 0
	
	// Daten-Bit 0-3
	for(i=0;i<4; i++)
	{	lcd_sclk(0);
 588:	80 e0       	ldi	r24, 0x00	; 0
 58a:	b2 df       	rcall	.-156    	; 0x4f0 <lcd_sclk>
		if (value & 0x01) lcd_sid(1);
 58c:	c0 ff       	sbrs	r28, 0
 58e:	03 c0       	rjmp	.+6      	; 0x596 <write_lcd_f+0x6e>
 590:	81 e0       	ldi	r24, 0x01	; 1
 592:	a8 df       	rcall	.-176    	; 0x4e4 <lcd_sid>
 594:	02 c0       	rjmp	.+4      	; 0x59a <write_lcd_f+0x72>
		else lcd_sid(0);
 596:	80 e0       	ldi	r24, 0x00	; 0
 598:	a5 df       	rcall	.-182    	; 0x4e4 <lcd_sid>
		value = value >> 1;
 59a:	d6 95       	lsr	r29
 59c:	c7 95       	ror	r28
		lcd_sclk(0);
 59e:	80 e0       	ldi	r24, 0x00	; 0
 5a0:	a7 df       	rcall	.-178    	; 0x4f0 <lcd_sclk>
		lcd_sclk(1);
 5a2:	81 e0       	ldi	r24, 0x01	; 1
 5a4:	a5 df       	rcall	.-182    	; 0x4f0 <lcd_sclk>
 5a6:	01 50       	subi	r16, 0x01	; 1
 5a8:	11 09       	sbc	r17, r1
	
	lcd_sclk(0);				// END-Bit senden
	lcd_sclk(1);
	
	// Daten-Bit 0-3
	for(i=0;i<4; i++)
 5aa:	01 15       	cp	r16, r1
 5ac:	11 05       	cpc	r17, r1
 5ae:	61 f7       	brne	.-40     	; 0x588 <write_lcd_f+0x60>
		value = value >> 1;
		lcd_sclk(0);
		lcd_sclk(1);
	}

	lcd_sid(0);		// 4x "0" senden
 5b0:	80 e0       	ldi	r24, 0x00	; 0
 5b2:	98 df       	rcall	.-208    	; 0x4e4 <lcd_sid>
 5b4:	04 e0       	ldi	r16, 0x04	; 4
 5b6:	10 e0       	ldi	r17, 0x00	; 0
	for(i=0;i<4; i++)
	{	lcd_sclk(0);
 5b8:	80 e0       	ldi	r24, 0x00	; 0
 5ba:	9a df       	rcall	.-204    	; 0x4f0 <lcd_sclk>
		lcd_sclk(1);
 5bc:	81 e0       	ldi	r24, 0x01	; 1
 5be:	98 df       	rcall	.-208    	; 0x4f0 <lcd_sclk>
 5c0:	01 50       	subi	r16, 0x01	; 1
 5c2:	11 09       	sbc	r17, r1
		lcd_sclk(0);
		lcd_sclk(1);
	}

	lcd_sid(0);		// 4x "0" senden
	for(i=0;i<4; i++)
 5c4:	01 15       	cp	r16, r1
 5c6:	11 05       	cpc	r17, r1
 5c8:	b9 f7       	brne	.-18     	; 0x5b8 <write_lcd_f+0x90>
 5ca:	04 e0       	ldi	r16, 0x04	; 4
 5cc:	10 e0       	ldi	r17, 0x00	; 0
		lcd_sclk(1);
	}
	
	// Daten-Bit 4-7
	for(i=0;i<4; i++)
	{	lcd_sclk(0);
 5ce:	80 e0       	ldi	r24, 0x00	; 0
 5d0:	8f df       	rcall	.-226    	; 0x4f0 <lcd_sclk>
		if (value & 0x01) lcd_sid(1);
 5d2:	c0 ff       	sbrs	r28, 0
 5d4:	03 c0       	rjmp	.+6      	; 0x5dc <write_lcd_f+0xb4>
 5d6:	81 e0       	ldi	r24, 0x01	; 1
 5d8:	85 df       	rcall	.-246    	; 0x4e4 <lcd_sid>
 5da:	02 c0       	rjmp	.+4      	; 0x5e0 <write_lcd_f+0xb8>
		else lcd_sid(0);
 5dc:	80 e0       	ldi	r24, 0x00	; 0
 5de:	82 df       	rcall	.-252    	; 0x4e4 <lcd_sid>
		value = value >> 1;
 5e0:	d6 95       	lsr	r29
 5e2:	c7 95       	ror	r28
		lcd_sclk(0);
 5e4:	80 e0       	ldi	r24, 0x00	; 0
 5e6:	84 df       	rcall	.-248    	; 0x4f0 <lcd_sclk>
		lcd_sclk(1);
 5e8:	81 e0       	ldi	r24, 0x01	; 1
 5ea:	82 df       	rcall	.-252    	; 0x4f0 <lcd_sclk>
 5ec:	01 50       	subi	r16, 0x01	; 1
 5ee:	11 09       	sbc	r17, r1
	{	lcd_sclk(0);
		lcd_sclk(1);
	}
	
	// Daten-Bit 4-7
	for(i=0;i<4; i++)
 5f0:	01 15       	cp	r16, r1
 5f2:	11 05       	cpc	r17, r1
 5f4:	61 f7       	brne	.-40     	; 0x5ce <write_lcd_f+0xa6>
		value = value >> 1;
		lcd_sclk(0);
		lcd_sclk(1);
	}
	
	lcd_sid(0);			// 4x "0" senden
 5f6:	80 e0       	ldi	r24, 0x00	; 0
 5f8:	75 df       	rcall	.-278    	; 0x4e4 <lcd_sid>
 5fa:	c4 e0       	ldi	r28, 0x04	; 4
 5fc:	d0 e0       	ldi	r29, 0x00	; 0
	for(i=0;i<4; i++)
	{	lcd_sclk(0);
 5fe:	80 e0       	ldi	r24, 0x00	; 0
 600:	77 df       	rcall	.-274    	; 0x4f0 <lcd_sclk>
		lcd_sclk(1);
 602:	81 e0       	ldi	r24, 0x01	; 1
 604:	75 df       	rcall	.-278    	; 0x4f0 <lcd_sclk>
 606:	21 97       	sbiw	r28, 0x01	; 1
		lcd_sclk(0);
		lcd_sclk(1);
	}
	
	lcd_sid(0);			// 4x "0" senden
	for(i=0;i<4; i++)
 608:	20 97       	sbiw	r28, 0x00	; 0
 60a:	c9 f7       	brne	.-14     	; 0x5fe <write_lcd_f+0xd6>
 60c:	c2 e3       	ldi	r28, 0x32	; 50
 60e:	d0 e0       	ldi	r29, 0x00	; 0
	{	lcd_sclk(0);
		lcd_sclk(1);
	}
	
	// Write-Befehl auf 50us verlängern, damit minimale Execution-Time 39us/43us eingehalten ist.
	for(i=0;i<50; i++) lcd_sid(1);
 610:	81 e0       	ldi	r24, 0x01	; 1
 612:	68 df       	rcall	.-304    	; 0x4e4 <lcd_sid>
 614:	21 97       	sbiw	r28, 0x01	; 1
 616:	20 97       	sbiw	r28, 0x00	; 0
 618:	d9 f7       	brne	.-10     	; 0x610 <write_lcd_f+0xe8>
	wait_1us(50);
 61a:	82 e3       	ldi	r24, 0x32	; 50
 61c:	90 e0       	ldi	r25, 0x00	; 0
 61e:	42 de       	rcall	.-892    	; 0x2a4 <wait_1us>
}
 620:	df 91       	pop	r29
 622:	cf 91       	pop	r28
 624:	1f 91       	pop	r17
 626:	0f 91       	pop	r16
 628:	ff 90       	pop	r15
 62a:	ef 90       	pop	r14
 62c:	08 95       	ret

0000062e <write_text>:

//------------------------------------------------------------
// Text an xy-Position ausgeben
//------------------------------------------------------------
void write_text(uint8_t y_pos, uint8_t x_pos, char *str_ptr)
{
 62e:	1f 93       	push	r17
 630:	cf 93       	push	r28
 632:	df 93       	push	r29
 634:	ea 01       	movw	r28, r20
	uint8_t str_p = 0;
	uint8_t pos;
	pos = x_pos + y_pos * 0x20;
 636:	90 e2       	ldi	r25, 0x20	; 32
 638:	89 9f       	mul	r24, r25
 63a:	60 0d       	add	r22, r0
 63c:	11 24       	eor	r1, r1
	write_lcd_f('C',pos | 0x80);
 63e:	60 68       	ori	r22, 0x80	; 128
 640:	70 e0       	ldi	r23, 0x00	; 0
 642:	83 e4       	ldi	r24, 0x43	; 67
 644:	90 e0       	ldi	r25, 0x00	; 0
 646:	70 df       	rcall	.-288    	; 0x528 <write_lcd_f>

	while(str_ptr[str_p])
 648:	68 81       	ld	r22, Y
 64a:	66 23       	and	r22, r22
 64c:	61 f0       	breq	.+24     	; 0x666 <write_text+0x38>
//------------------------------------------------------------
// Text an xy-Position ausgeben
//------------------------------------------------------------
void write_text(uint8_t y_pos, uint8_t x_pos, char *str_ptr)
{
	uint8_t str_p = 0;
 64e:	10 e0       	ldi	r17, 0x00	; 0
	uint8_t pos;
	pos = x_pos + y_pos * 0x20;
	write_lcd_f('C',pos | 0x80);

	while(str_ptr[str_p])
	{ write_lcd_f('D',str_ptr[str_p++]);
 650:	1f 5f       	subi	r17, 0xFF	; 255
 652:	70 e0       	ldi	r23, 0x00	; 0
 654:	84 e4       	ldi	r24, 0x44	; 68
 656:	90 e0       	ldi	r25, 0x00	; 0
 658:	67 df       	rcall	.-306    	; 0x528 <write_lcd_f>
	uint8_t str_p = 0;
	uint8_t pos;
	pos = x_pos + y_pos * 0x20;
	write_lcd_f('C',pos | 0x80);

	while(str_ptr[str_p])
 65a:	fe 01       	movw	r30, r28
 65c:	e1 0f       	add	r30, r17
 65e:	f1 1d       	adc	r31, r1
 660:	60 81       	ld	r22, Z
 662:	61 11       	cpse	r22, r1
 664:	f5 cf       	rjmp	.-22     	; 0x650 <write_text+0x22>
	{ write_lcd_f('D',str_ptr[str_p++]);
	}
}
 666:	df 91       	pop	r29
 668:	cf 91       	pop	r28
 66a:	1f 91       	pop	r17
 66c:	08 95       	ret

0000066e <lcd_init>:
//--------------------------------------------------------------------------------------------
// Initialisierung des LCD's
//--------------------------------------------------------------------------------------------
void lcd_init(void)
{
	lcd_sclk(1);
 66e:	81 e0       	ldi	r24, 0x01	; 1
 670:	3f df       	rcall	.-386    	; 0x4f0 <lcd_sclk>
	lcd_sid(0);
 672:	80 e0       	ldi	r24, 0x00	; 0
 674:	37 df       	rcall	.-402    	; 0x4e4 <lcd_sid>
	
	lcd_on_off(0);
 676:	80 e0       	ldi	r24, 0x00	; 0
 678:	41 df       	rcall	.-382    	; 0x4fc <lcd_on_off>
	wait_5ms(2);
 67a:	82 e0       	ldi	r24, 0x02	; 2
 67c:	90 e0       	ldi	r25, 0x00	; 0
 67e:	05 de       	rcall	.-1014   	; 0x28a <wait_5ms>
	 
	lcd_on_off(1); 
 680:	81 e0       	ldi	r24, 0x01	; 1
 682:	3c df       	rcall	.-392    	; 0x4fc <lcd_on_off>
	wait_5ms(10);
 684:	8a e0       	ldi	r24, 0x0A	; 10
 686:	90 e0       	ldi	r25, 0x00	; 0
 688:	00 de       	rcall	.-1024   	; 0x28a <wait_5ms>
	
	write_lcd_f('C',0x34);      // set 8-Bit-Interface RE = 1
 68a:	64 e3       	ldi	r22, 0x34	; 52
 68c:	70 e0       	ldi	r23, 0x00	; 0
 68e:	83 e4       	ldi	r24, 0x43	; 67
 690:	90 e0       	ldi	r25, 0x00	; 0
 692:	4a df       	rcall	.-364    	; 0x528 <write_lcd_f>
	write_lcd_f('C',0x09);      // 4-Zeilen-Modus, 5-Dot Font-Breite
 694:	69 e0       	ldi	r22, 0x09	; 9
 696:	70 e0       	ldi	r23, 0x00	; 0
 698:	83 e4       	ldi	r24, 0x43	; 67
 69a:	90 e0       	ldi	r25, 0x00	; 0
 69c:	45 df       	rcall	.-374    	; 0x528 <write_lcd_f>
	
	write_lcd_f('C',0x30);      // set 8-Bit-Interface RE = 0
 69e:	60 e3       	ldi	r22, 0x30	; 48
 6a0:	70 e0       	ldi	r23, 0x00	; 0
 6a2:	83 e4       	ldi	r24, 0x43	; 67
 6a4:	90 e0       	ldi	r25, 0x00	; 0
 6a6:	40 df       	rcall	.-384    	; 0x528 <write_lcd_f>
	write_lcd_f('C',0x0C);      // Display ON, Cursor OFF
 6a8:	6c e0       	ldi	r22, 0x0C	; 12
 6aa:	70 e0       	ldi	r23, 0x00	; 0
 6ac:	83 e4       	ldi	r24, 0x43	; 67
 6ae:	90 e0       	ldi	r25, 0x00	; 0
 6b0:	3b df       	rcall	.-394    	; 0x528 <write_lcd_f>

	write_lcd_f('C',0x01);      // Clear Display
 6b2:	61 e0       	ldi	r22, 0x01	; 1
 6b4:	70 e0       	ldi	r23, 0x00	; 0
 6b6:	83 e4       	ldi	r24, 0x43	; 67
 6b8:	90 e0       	ldi	r25, 0x00	; 0
 6ba:	36 df       	rcall	.-404    	; 0x528 <write_lcd_f>
	wait_5ms(1);//wait_1us(2000);							// 2ms warten, bis LCD gelöscht ist
 6bc:	81 e0       	ldi	r24, 0x01	; 1
 6be:	90 e0       	ldi	r25, 0x00	; 0
 6c0:	e4 dd       	rcall	.-1080   	; 0x28a <wait_5ms>
	
	write_lcd_f('C',0x07);      // Entry Mode
 6c2:	67 e0       	ldi	r22, 0x07	; 7
 6c4:	70 e0       	ldi	r23, 0x00	; 0
 6c6:	83 e4       	ldi	r24, 0x43	; 67
 6c8:	90 e0       	ldi	r25, 0x00	; 0
 6ca:	2e df       	rcall	.-420    	; 0x528 <write_lcd_f>
	
	write_text(0,4,"Sirius Black");
 6cc:	4b e3       	ldi	r20, 0x3B	; 59
 6ce:	52 e0       	ldi	r21, 0x02	; 2
 6d0:	64 e0       	ldi	r22, 0x04	; 4
 6d2:	80 e0       	ldi	r24, 0x00	; 0
 6d4:	ac df       	rcall	.-168    	; 0x62e <write_text>
	write_text(1,8, "----");
 6d6:	48 e4       	ldi	r20, 0x48	; 72
 6d8:	52 e0       	ldi	r21, 0x02	; 2
 6da:	68 e0       	ldi	r22, 0x08	; 8
 6dc:	81 e0       	ldi	r24, 0x01	; 1
 6de:	a7 df       	rcall	.-178    	; 0x62e <write_text>
	write_text(2,2,"Belive in magic,");
 6e0:	4d e4       	ldi	r20, 0x4D	; 77
 6e2:	52 e0       	ldi	r21, 0x02	; 2
 6e4:	62 e0       	ldi	r22, 0x02	; 2
 6e6:	82 e0       	ldi	r24, 0x02	; 2
 6e8:	a2 df       	rcall	.-188    	; 0x62e <write_text>
	write_text(3,5,"you muggle.");
 6ea:	4e e5       	ldi	r20, 0x5E	; 94
 6ec:	52 e0       	ldi	r21, 0x02	; 2
 6ee:	65 e0       	ldi	r22, 0x05	; 5
 6f0:	83 e0       	ldi	r24, 0x03	; 3
 6f2:	9d cf       	rjmp	.-198    	; 0x62e <write_text>
 6f4:	08 95       	ret

000006f6 <__umulhisi3>:
 6f6:	a2 9f       	mul	r26, r18
 6f8:	b0 01       	movw	r22, r0
 6fa:	b3 9f       	mul	r27, r19
 6fc:	c0 01       	movw	r24, r0
 6fe:	a3 9f       	mul	r26, r19
 700:	70 0d       	add	r23, r0
 702:	81 1d       	adc	r24, r1
 704:	11 24       	eor	r1, r1
 706:	91 1d       	adc	r25, r1
 708:	b2 9f       	mul	r27, r18
 70a:	70 0d       	add	r23, r0
 70c:	81 1d       	adc	r24, r1
 70e:	11 24       	eor	r1, r1
 710:	91 1d       	adc	r25, r1
 712:	08 95       	ret

00000714 <_exit>:
 714:	f8 94       	cli

00000716 <__stop_program>:
 716:	ff cf       	rjmp	.-2      	; 0x716 <__stop_program>
